; Function Attrs: mustprogress uwtable
define noundef i32 @_ZNK7testing8internal12UnitTestImpl22failed_test_case_countEv(ptr noundef nonnull readonly align 8 captures(none) dereferenceable(497) %0) local_unnamed_addr #4 align 2 {
  %2 = getelementptr inbounds nuw i8, ptr %0, i64 184
  %3 = load ptr, ptr %2, align 8, !tbaa !224
  %4 = getelementptr inbounds nuw i8, ptr %0, i64 192
  %5 = load ptr, ptr %4, align 8, !tbaa !224
  %.not7.i = icmp eq ptr %3, %5
  br i1 %.not7.i, label %_ZN7testing8internal7CountIfISt6vectorIPNS_8TestCaseESaIS4_EEPFbPKS3_EEEiRKT_T0_.exit, label %.lr.ph.i

.lr.ph.i:                                         ; preds = %1, %_ZN7testing8internalL14TestCaseFailedEPKNS_8TestCaseE.exit
  %.09.i = phi i32 [ %spec.select.i, %_ZN7testing8internalL14TestCaseFailedEPKNS_8TestCaseE.exit ], [ 0, %1 ]
  %.sroa.04.08.i = phi ptr [ %38, %_ZN7testing8internalL14TestCaseFailedEPKNS_8TestCaseE.exit ], [ %3, %1 ]
  %6 = load ptr, ptr %.sroa.04.08.i, align 8, !tbaa !225
  %7 = getelementptr inbounds nuw i8, ptr %6, i64 112
  %8 = load i8, ptr %7, align 8, !tbaa !226, !range !68, !noundef !69
  %9 = trunc nuw i8 %8 to i1
  br i1 %9, label %10, label %_ZN7testing8internalL14TestCaseFailedEPKNS_8TestCaseE.exit

10:                                               ; preds = %.lr.ph.i
  %11 = getelementptr inbounds nuw i8, ptr %6, i64 48
  %12 = load ptr, ptr %11, align 8, !tbaa !234
  %13 = getelementptr inbounds nuw i8, ptr %6, i64 56
  %14 = load ptr, ptr %13, align 8, !tbaa !234
  %.not7.i.i.i.i = icmp eq ptr %12, %14
  br i1 %.not7.i.i.i.i, label %_ZN7testing8internalL14TestCaseFailedEPKNS_8TestCaseE.exit, label %.lr.ph.i.i.i.i

.lr.ph.i.i.i.i:                                   ; preds = %10, %_ZN7testing8TestCase10TestFailedEPKNS_8TestInfoE.exit.i.i.i
  %.09.i.i.i.i = phi i32 [ %spec.select.i.i.i.i, %_ZN7testing8TestCase10TestFailedEPKNS_8TestInfoE.exit.i.i.i ], [ 0, %10 ]
  %.sroa.04.08.i.i.i.i = phi ptr [ %34, %_ZN7testing8TestCase10TestFailedEPKNS_8TestInfoE.exit.i.i.i ], [ %12, %10 ]
  %15 = load ptr, ptr %.sroa.04.08.i.i.i.i, align 8, !tbaa !235
  %16 = getelementptr inbounds nuw i8, ptr %15, i64 128
  %17 = load i8, ptr %16, align 8, !tbaa !236, !range !68, !noundef !69
  %18 = trunc nuw i8 %17 to i1
  br i1 %18, label %19, label %_ZN7testing8TestCase10TestFailedEPKNS_8TestInfoE.exit.i.i.i

19:                                               ; preds = %.lr.ph.i.i.i.i
  %20 = getelementptr inbounds nuw i8, ptr %15, i64 200
  %21 = getelementptr inbounds nuw i8, ptr %15, i64 208
  %22 = load ptr, ptr %21, align 8, !tbaa !191
  %23 = load ptr, ptr %20, align 8, !tbaa !199
  %24 = ptrtoint ptr %22 to i64
  %25 = ptrtoint ptr %23 to i64
  %26 = sub i64 %24, %25
  %27 = sdiv exact i64 %26, 112
  %28 = trunc i64 %27 to i32
  %.not711.i.i.i.i.i = icmp sgt i32 %28, 0
  br i1 %.not711.i.i.i.i.i, label %.lr.ph.preheader.i.i.i.i.i, label %_ZN7testing8TestCase10TestFailedEPKNS_8TestInfoE.exit.i.i.i

.lr.ph.preheader.i.i.i.i.i:                       ; preds = %19
  %wide.trip.count.i.i.i.i.i = and i64 %27, 2147483647
  br label %.lr.ph.i.i.i.i.i

29:                                               ; preds = %_ZNK7testing10TestResult17GetTestPartResultEi.exit.i.i.i.i.i
  %indvars.iv.next.i.i.i.i.i = add nuw nsw i64 %indvars.iv.i.i.i.i.i, 1
  %exitcond17.not.i.i.i.i.i = icmp eq i64 %indvars.iv.next.i.i.i.i.i, %wide.trip.count.i.i.i.i.i
  br i1 %exitcond17.not.i.i.i.i.i, label %_ZN7testing8TestCase10TestFailedEPKNS_8TestInfoE.exit.i.i.i, label %.lr.ph.i.i.i.i.i, !llvm.loop !240

.lr.ph.i.i.i.i.i:                                 ; preds = %29, %.lr.ph.preheader.i.i.i.i.i
  %indvars.iv.i.i.i.i.i = phi i64 [ 0, %.lr.ph.preheader.i.i.i.i.i ], [ %indvars.iv.next.i.i.i.i.i, %29 ]
  %exitcond.not.i.i.i.i.i = icmp eq i64 %indvars.iv.i.i.i.i.i, %27
  br i1 %exitcond.not.i.i.i.i.i, label %30, label %_ZNK7testing10TestResult17GetTestPartResultEi.exit.i.i.i.i.i

30:                                               ; preds = %.lr.ph.i.i.i.i.i
  tail call void (ptr, ...) @_ZSt24__throw_out_of_range_fmtPKcz(ptr noundef nonnull @.str.490, i64 noundef %27, i64 noundef %27) #58
  unreachable

_ZNK7testing10TestResult17GetTestPartResultEi.exit.i.i.i.i.i: ; preds = %.lr.ph.i.i.i.i.i
  %31 = getelementptr inbounds nuw %"class.testing::TestPartResult", ptr %23, i64 %indvars.iv.i.i.i.i.i
  %32 = load i32, ptr %31, align 8, !tbaa !208
  %.not.not.i.not.i.i.i.i = icmp eq i32 %32, 0
  br i1 %.not.not.i.not.i.i.i.i, label %29, label %_ZN7testing8TestCase10TestFailedEPKNS_8TestInfoE.exit.i.i.i

_ZN7testing8TestCase10TestFailedEPKNS_8TestInfoE.exit.i.i.i: ; preds = %_ZNK7testing10TestResult17GetTestPartResultEi.exit.i.i.i.i.i, %29, %19, %.lr.ph.i.i.i.i
  %33 = phi i32 [ 0, %.lr.ph.i.i.i.i ], [ 0, %19 ], [ 1, %_ZNK7testing10TestResult17GetTestPartResultEi.exit.i.i.i.i.i ], [ 0, %29 ]
  %spec.select.i.i.i.i = add nuw nsw i32 %33, %.09.i.i.i.i
  %34 = getelementptr inbounds nuw i8, ptr %.sroa.04.08.i.i.i.i, i64 8
  %.not.i.i.i.i = icmp eq ptr %34, %14
  br i1 %.not.i.i.i.i, label %_ZNK7testing8TestCase17failed_test_countEv.exit.loopexit.i.i, label %.lr.ph.i.i.i.i, !llvm.loop !241

_ZNK7testing8TestCase17failed_test_countEv.exit.loopexit.i.i: ; preds = %_ZN7testing8TestCase10TestFailedEPKNS_8TestInfoE.exit.i.i.i
  %35 = icmp ne i32 %spec.select.i.i.i.i, 0
  %36 = zext i1 %35 to i32
  br label %_ZN7testing8internalL14TestCaseFailedEPKNS_8TestCaseE.exit

_ZN7testing8internalL14TestCaseFailedEPKNS_8TestCaseE.exit: ; preds = %.lr.ph.i, %10, %_ZNK7testing8TestCase17failed_test_countEv.exit.loopexit.i.i
  %37 = phi i32 [ 0, %.lr.ph.i ], [ 0, %10 ], [ %36, %_ZNK7testing8TestCase17failed_test_countEv.exit.loopexit.i.i ]
  %spec.select.i = add nuw nsw i32 %37, %.09.i
  %38 = getelementptr inbounds nuw i8, ptr %.sroa.04.08.i, i64 8
  %.not.i = icmp eq ptr %38, %5
  br i1 %.not.i, label %_ZN7testing8internal7CountIfISt6vectorIPNS_8TestCaseESaIS4_EEPFbPKS3_EEEiRKT_T0_.exit, label %.lr.ph.i, !llvm.loop !242

_ZN7testing8internal7CountIfISt6vectorIPNS_8TestCaseESaIS4_EEPFbPKS3_EEEiRKT_T0_.exit: ; preds = %_ZN7testing8internalL14TestCaseFailedEPKNS_8TestCaseE.exit, %1
  %.0.lcssa.i = phi i32 [ 0, %1 ], [ %spec.select.i, %_ZN7testing8internalL14TestCaseFailedEPKNS_8TestCaseE.exit ]
  ret i32 %.0.lcssa.i
}